target datalayout = "e-m:e-p270:32:32-p271:32:32-p272:64:64-i64:64-i128:128-f80:128-n8:16:32:64-S128"
target triple = "x86_64-pc-linux-gnu"

%struct.Mig_Man_t_ = type { ptr, i32, i32, i32, %struct.Vec_Ptr_t_, %struct.Vec_Int_t_, %struct.Vec_Int_t_, ptr, i32, i32, %struct.Vec_Int_t_, %struct.Vec_Int_t_, %struct.Vec_Int_t_, %struct.Vec_Int_t_, %struct.Vec_Int_t_, ptr }
%struct.Vec_Ptr_t_ = type { i32, i32, ptr }
%struct.Vec_Int_t_ = type { i32, i32, ptr }
%struct.Mig_Obj_t_ = type { [4 x %struct.Mig_Fan_t_] }
%struct.Mig_Fan_t_ = type { i32 }

; Function Attrs: nounwind uwtable
define internal ptr @Vec_PtrEntry(ptr noundef %0, i32 noundef %1) #0 {
  %3 = alloca ptr, align 8
  %4 = alloca i32, align 4
  store ptr %0, ptr %3, align 8
  store i32 %1, ptr %4, align 4
  %5 = load ptr, ptr %3, align 8
  %6 = getelementptr inbounds %struct.Vec_Ptr_t_, ptr %5, i32 0, i32 2
  %7 = load ptr, ptr %6, align 8
  %8 = load i32, ptr %4, align 4
  %9 = sext i32 %8 to i64
  %10 = getelementptr inbounds ptr, ptr %7, i64 %9
  %11 = load ptr, ptr %10, align 8
  ret ptr %11
}

; Function Attrs: nounwind uwtable
define internal i32 @Mig_IdPage(i32 noundef %0) #0 {
  %2 = alloca i32, align 4
  store i32 %0, ptr %2, align 4
  %3 = load i32, ptr %2, align 4
  %4 = ashr i32 %3, 12
  ret i32 %4
}

; Function Attrs: nounwind uwtable
define internal void @Vec_IntWriteEntry(ptr noundef %0, i32 noundef %1, i32 noundef %2) #0 {
  %4 = alloca ptr, align 8
  %5 = alloca i32, align 4
  %6 = alloca i32, align 4
  store ptr %0, ptr %4, align 8
  store i32 %1, ptr %5, align 4
  store i32 %2, ptr %6, align 4
  %7 = load i32, ptr %6, align 4
  %8 = load ptr, ptr %4, align 8
  %9 = getelementptr inbounds %struct.Vec_Int_t_, ptr %8, i32 0, i32 2
  %10 = load ptr, ptr %9, align 8
  %11 = load i32, ptr %5, align 4
  %12 = sext i32 %11 to i64
  %13 = getelementptr inbounds i32, ptr %10, i64 %12
  store i32 %7, ptr %13, align 4
  ret void
}

; Function Attrs: nounwind uwtable
define internal i32 @Vec_IntEntry(ptr noundef %0, i32 noundef %1) #0 {
  %3 = alloca ptr, align 8
  %4 = alloca i32, align 4
  store ptr %0, ptr %3, align 8
  store i32 %1, ptr %4, align 4
  %5 = load ptr, ptr %3, align 8
  %6 = getelementptr inbounds %struct.Vec_Int_t_, ptr %5, i32 0, i32 2
  %7 = load ptr, ptr %6, align 8
  %8 = load i32, ptr %4, align 4
  %9 = sext i32 %8 to i64
  %10 = getelementptr inbounds i32, ptr %7, i64 %9
  %11 = load i32, ptr %10, align 4
  ret i32 %11
}

; Function Attrs: nounwind uwtable
define internal i32 @Mig_FanId(ptr noundef %0, i32 noundef %1) #0 {
  %3 = alloca ptr, align 8
  %4 = alloca i32, align 4
  store ptr %0, ptr %3, align 8
  store i32 %1, ptr %4, align 4
  %5 = load ptr, ptr %3, align 8
  %6 = getelementptr inbounds %struct.Mig_Obj_t_, ptr %5, i32 0, i32 0
  %7 = load i32, ptr %4, align 4
  %8 = sext i32 %7 to i64
  %9 = getelementptr inbounds [4 x %struct.Mig_Fan_t_], ptr %6, i64 0, i64 %8
  %10 = load i32, ptr %9, align 4
  %11 = lshr i32 %10, 1
  ret i32 %11
}

; Function Attrs: nounwind uwtable
define internal i32 @Mig_FanIsNone(ptr noundef %0, i32 noundef %1) #0 {
  %3 = alloca ptr, align 8
  %4 = alloca i32, align 4
  store ptr %0, ptr %3, align 8
  store i32 %1, ptr %4, align 4
  %5 = load ptr, ptr %3, align 8
  %6 = getelementptr inbounds %struct.Mig_Obj_t_, ptr %5, i32 0, i32 0
  %7 = load i32, ptr %4, align 4
  %8 = sext i32 %7 to i64
  %9 = getelementptr inbounds [4 x %struct.Mig_Fan_t_], ptr %6, i64 0, i64 %8
  %10 = load i32, ptr %9, align 4
  %11 = lshr i32 %10, 1
  %12 = icmp eq i32 %11, 2147483647
  %13 = zext i1 %12 to i32
  ret i32 %13
}

; Function Attrs: nounwind uwtable
define internal i32 @Mig_ObjIsTerm(ptr noundef %0) #0 {
  %2 = alloca ptr, align 8
  store ptr %0, ptr %2, align 8
  %3 = load ptr, ptr %2, align 8
  %4 = call i32 @Mig_FanIsNone(ptr noundef %3, i32 noundef 1)
  %5 = icmp ne i32 %4, 0
  br i1 %5, label %6, label %11

6:                                                ; preds = %1
  %7 = load ptr, ptr %2, align 8
  %8 = call i32 @Mig_FanIsNone(ptr noundef %7, i32 noundef 2)
  %9 = icmp ne i32 %8, 0
  %10 = xor i1 %9, true
  br label %11

11:                                               ; preds = %6, %1
  %12 = phi i1 [ false, %1 ], [ %10, %6 ]
  %13 = zext i1 %12 to i32
  ret i32 %13
}

; Function Attrs: nounwind uwtable
define internal i32 @Mig_IdCell(i32 noundef %0) #0 {
  %2 = alloca i32, align 4
  store i32 %0, ptr %2, align 4
  %3 = load i32, ptr %2, align 4
  %4 = and i32 %3, 4095
  ret i32 %4
}

; Function Attrs: nounwind uwtable
define internal ptr @Mig_ManPage(ptr noundef %0, i32 noundef %1) #0 {
  %3 = alloca ptr, align 8
  %4 = alloca i32, align 4
  store ptr %0, ptr %3, align 8
  store i32 %1, ptr %4, align 4
  %5 = load ptr, ptr %3, align 8
  %6 = getelementptr inbounds %struct.Mig_Man_t_, ptr %5, i32 0, i32 4
  %7 = load i32, ptr %4, align 4
  %8 = call i32 @Mig_IdPage(i32 noundef %7)
  %9 = call ptr @Vec_PtrEntry(ptr noundef %6, i32 noundef %8)
  ret ptr %9
}

; Function Attrs: nounwind uwtable
define internal void @Vec_IntSetEntry(ptr noundef %0, i32 noundef %1, i32 noundef %2) #0 {
  %4 = alloca ptr, align 8
  %5 = alloca i32, align 4
  %6 = alloca i32, align 4
  store ptr %0, ptr %4, align 8
  store i32 %1, ptr %5, align 4
  store i32 %2, ptr %6, align 4
  %7 = load ptr, ptr %4, align 8
  %8 = load i32, ptr %5, align 4
  %9 = add nsw i32 %8, 1
  call void @Vec_IntFillExtra(ptr noundef %7, i32 noundef %9, i32 noundef 0)
  %10 = load ptr, ptr %4, align 8
  %11 = load i32, ptr %5, align 4
  %12 = load i32, ptr %6, align 4
  call void @Vec_IntWriteEntry(ptr noundef %10, i32 noundef %11, i32 noundef %12)
  ret void
}

; Function Attrs: nounwind uwtable
define internal i32 @Vec_IntGetEntry(ptr noundef %0, i32 noundef %1) #0 {
  %3 = alloca ptr, align 8
  %4 = alloca i32, align 4
  store ptr %0, ptr %3, align 8
  store i32 %1, ptr %4, align 4
  %5 = load ptr, ptr %3, align 8
  %6 = load i32, ptr %4, align 4
  %7 = add nsw i32 %6, 1
  call void @Vec_IntFillExtra(ptr noundef %5, i32 noundef %7, i32 noundef 0)
  %8 = load ptr, ptr %3, align 8
  %9 = load i32, ptr %4, align 4
  %10 = call i32 @Vec_IntEntry(ptr noundef %8, i32 noundef %9)
  ret i32 %10
}

; Function Attrs: nounwind uwtable
define internal i32 @Mig_ObjFaninId2(ptr noundef %0) #0 {
  %2 = alloca ptr, align 8
  store ptr %0, ptr %2, align 8
  %3 = load ptr, ptr %2, align 8
  %4 = call i32 @Mig_FanId(ptr noundef %3, i32 noundef 2)
  ret i32 %4
}

; Function Attrs: nounwind uwtable
define internal i32 @Mig_ObjFaninId1(ptr noundef %0) #0 {
  %2 = alloca ptr, align 8
  store ptr %0, ptr %2, align 8
  %3 = load ptr, ptr %2, align 8
  %4 = call i32 @Mig_FanId(ptr noundef %3, i32 noundef 1)
  ret i32 %4
}

; Function Attrs: nounwind uwtable
define internal i32 @Mig_ObjFaninId0(ptr noundef %0) #0 {
  %2 = alloca ptr, align 8
  store ptr %0, ptr %2, align 8
  %3 = load ptr, ptr %2, align 8
  %4 = call i32 @Mig_FanId(ptr noundef %3, i32 noundef 0)
  ret i32 %4
}

; Function Attrs: nounwind uwtable
define internal i32 @Mig_ObjIsCi(ptr noundef %0) #0 {
  %2 = alloca ptr, align 8
  store ptr %0, ptr %2, align 8
  %3 = load ptr, ptr %2, align 8
  %4 = call i32 @Mig_ObjIsTerm(ptr noundef %3)
  %5 = icmp ne i32 %4, 0
  br i1 %5, label %6, label %10

6:                                                ; preds = %1
  %7 = load ptr, ptr %2, align 8
  %8 = call i32 @Mig_FanIsNone(ptr noundef %7, i32 noundef 0)
  %9 = icmp ne i32 %8, 0
  br label %10

10:                                               ; preds = %6, %1
  %11 = phi i1 [ false, %1 ], [ %9, %6 ]
  %12 = zext i1 %11 to i32
  ret i32 %12
}

; Function Attrs: nounwind uwtable
define internal ptr @Mig_ManObj(ptr noundef %0, i32 noundef %1) #0 {
  %3 = alloca ptr, align 8
  %4 = alloca i32, align 4
  store ptr %0, ptr %3, align 8
  store i32 %1, ptr %4, align 4
  %5 = load ptr, ptr %3, align 8
  %6 = load i32, ptr %4, align 4
  %7 = call ptr @Mig_ManPage(ptr noundef %5, i32 noundef %6)
  %8 = load i32, ptr %4, align 4
  %9 = call i32 @Mig_IdCell(i32 noundef %8)
  %10 = sext i32 %9 to i64
  %11 = getelementptr inbounds %struct.Mig_Obj_t_, ptr %7, i64 %10
  ret ptr %11
}

; Function Attrs: nounwind uwtable
define internal void @Mig_ObjSetTravIdCurrentId(ptr noundef %0, i32 noundef %1) #0 {
  %3 = alloca ptr, align 8
  %4 = alloca i32, align 4
  store ptr %0, ptr %3, align 8
  store i32 %1, ptr %4, align 4
  %5 = load ptr, ptr %3, align 8
  %6 = getelementptr inbounds %struct.Mig_Man_t_, ptr %5, i32 0, i32 10
  %7 = load i32, ptr %4, align 4
  %8 = load ptr, ptr %3, align 8
  %9 = getelementptr inbounds %struct.Mig_Man_t_, ptr %8, i32 0, i32 9
  %10 = load i32, ptr %9, align 4
  call void @Vec_IntSetEntry(ptr noundef %6, i32 noundef %7, i32 noundef %10)
  ret void
}

; Function Attrs: nounwind uwtable
define internal i32 @Mig_ObjIsTravIdCurrentId(ptr noundef %0, i32 noundef %1) #0 {
  %3 = alloca ptr, align 8
  %4 = alloca i32, align 4
  store ptr %0, ptr %3, align 8
  store i32 %1, ptr %4, align 4
  %5 = load ptr, ptr %3, align 8
  %6 = getelementptr inbounds %struct.Mig_Man_t_, ptr %5, i32 0, i32 10
  %7 = load i32, ptr %4, align 4
  %8 = call i32 @Vec_IntGetEntry(ptr noundef %6, i32 noundef %7)
  %9 = load ptr, ptr %3, align 8
  %10 = getelementptr inbounds %struct.Mig_Man_t_, ptr %9, i32 0, i32 9
  %11 = load i32, ptr %10, align 4
  %12 = icmp eq i32 %8, %11
  %13 = zext i1 %12 to i32
  ret i32 %13
}

; Function Attrs: nounwind uwtable
define i32 @Mig_ManSuppSize2_rec(ptr noundef %0, i32 noundef %1) #0 {
  %3 = alloca i32, align 4
  %4 = alloca ptr, align 8
  %5 = alloca i32, align 4
  %6 = alloca ptr, align 8
  store ptr %0, ptr %4, align 8
  store i32 %1, ptr %5, align 4
  %7 = load i32, ptr %5, align 4
  %8 = icmp eq i32 %7, 2147483647
  br i1 %8, label %9, label %10

9:                                                ; preds = %2
  store i32 0, ptr %3, align 4
  br label %41

10:                                               ; preds = %2
  %11 = load ptr, ptr %4, align 8
  %12 = load i32, ptr %5, align 4
  %13 = call i32 @Mig_ObjIsTravIdCurrentId(ptr noundef %11, i32 noundef %12)
  %14 = icmp ne i32 %13, 0
  br i1 %14, label %15, label %16

15:                                               ; preds = %10
  store i32 0, ptr %3, align 4
  br label %41

16:                                               ; preds = %10
  %17 = load ptr, ptr %4, align 8
  %18 = load i32, ptr %5, align 4
  call void @Mig_ObjSetTravIdCurrentId(ptr noundef %17, i32 noundef %18)
  %19 = load ptr, ptr %4, align 8
  %20 = load i32, ptr %5, align 4
  %21 = call ptr @Mig_ManObj(ptr noundef %19, i32 noundef %20)
  store ptr %21, ptr %6, align 8
  %22 = load ptr, ptr %6, align 8
  %23 = call i32 @Mig_ObjIsCi(ptr noundef %22)
  %24 = icmp ne i32 %23, 0
  br i1 %24, label %25, label %26

25:                                               ; preds = %16
  store i32 1, ptr %3, align 4
  br label %41

26:                                               ; preds = %16
  %27 = load ptr, ptr %4, align 8
  %28 = load ptr, ptr %6, align 8
  %29 = call i32 @Mig_ObjFaninId0(ptr noundef %28)
  %30 = call i32 @Mig_ManSuppSize2_rec(ptr noundef %27, i32 noundef %29)
  %31 = load ptr, ptr %4, align 8
  %32 = load ptr, ptr %6, align 8
  %33 = call i32 @Mig_ObjFaninId1(ptr noundef %32)
  %34 = call i32 @Mig_ManSuppSize2_rec(ptr noundef %31, i32 noundef %33)
  %35 = add nsw i32 %30, %34
  %36 = load ptr, ptr %4, align 8
  %37 = load ptr, ptr %6, align 8
  %38 = call i32 @Mig_ObjFaninId2(ptr noundef %37)
  %39 = call i32 @Mig_ManSuppSize2_rec(ptr noundef %36, i32 noundef %38)
  %40 = add nsw i32 %35, %39
  store i32 %40, ptr %3, align 4
  br label %41

41:                                               ; preds = %26, %25, %15, %9
  %42 = load i32, ptr %3, align 4
  ret i32 %42
}