; Function Attrs: nounwind uwtable
define i32 @Mig_ManSuppSize2_rec(ptr noundef %0, i32 noundef %1) local_unnamed_addr #2 {
  %3 = getelementptr inbounds nuw i8, ptr %0, i64 88
  %4 = icmp eq i32 %1, 2147483647
  br i1 %4, label %Mig_ObjIsCi.exit._crit_edge, label %.lr.ph

.lr.ph:                                           ; preds = %2
  %5 = getelementptr i8, ptr %0, i64 96
  %6 = getelementptr inbounds nuw i8, ptr %0, i64 84
  %7 = getelementptr i8, ptr %0, i64 32
  br label %8

8:                                                ; preds = %.lr.ph, %Mig_ObjIsCi.exit.thread
  %.tr2123 = phi i32 [ %1, %.lr.ph ], [ %35, %Mig_ObjIsCi.exit.thread ]
  %accumulator.tr22 = phi i32 [ 0, %.lr.ph ], [ %37, %Mig_ObjIsCi.exit.thread ]
  %9 = add nsw i32 %.tr2123, 1
  tail call fastcc void @Vec_IntFillExtra(ptr noundef nonnull %3, i32 noundef %9)
  %.val.i.i = load ptr, ptr %5, align 8
  %10 = sext i32 %.tr2123 to i64
  %11 = getelementptr inbounds i32, ptr %.val.i.i, i64 %10
  %12 = load i32, ptr %11, align 4
  %13 = load i32, ptr %6, align 4
  %.not = icmp eq i32 %12, %13
  br i1 %.not, label %Mig_ObjIsCi.exit._crit_edge.loopexit, label %14

14:                                               ; preds = %8
  tail call fastcc void @Vec_IntFillExtra(ptr noundef nonnull %3, i32 noundef %9)
  %.val.i.i19 = load ptr, ptr %5, align 8
  %15 = getelementptr inbounds i32, ptr %.val.i.i19, i64 %10
  store i32 %13, ptr %15, align 4
  %.val = load ptr, ptr %7, align 8
  %16 = ashr i32 %.tr2123, 12
  %17 = sext i32 %16 to i64
  %18 = getelementptr inbounds ptr, ptr %.val, i64 %17
  %19 = load ptr, ptr %18, align 8
  %20 = and i32 %.tr2123, 4095
  %21 = zext nneg i32 %20 to i64
  %22 = getelementptr inbounds nuw %struct.Mig_Obj_t_, ptr %19, i64 %21
  %23 = getelementptr inbounds nuw i8, ptr %22, i64 4
  %24 = load i32, ptr %23, align 4
  %25 = icmp ult i32 %24, -2
  br i1 %25, label %.Mig_ObjIsCi.exit.thread_crit_edge, label %Mig_ObjIsTerm.exit.i

.Mig_ObjIsCi.exit.thread_crit_edge:               ; preds = %14
  %.val16.pre = load i32, ptr %22, align 4
  br label %Mig_ObjIsCi.exit.thread

Mig_ObjIsTerm.exit.i:                             ; preds = %14
  %26 = getelementptr inbounds nuw i8, ptr %22, i64 8
  %27 = load i32, ptr %26, align 4
  %28 = icmp ugt i32 %27, -3
  %.val16.pre29 = load i32, ptr %22, align 4
  %29 = icmp ult i32 %.val16.pre29, -2
  %or.cond = select i1 %28, i1 true, i1 %29
  br i1 %or.cond, label %Mig_ObjIsCi.exit.thread, label %Mig_ObjIsCi.exit._crit_edge.loopexit

Mig_ObjIsCi.exit.thread:                          ; preds = %.Mig_ObjIsCi.exit.thread_crit_edge, %Mig_ObjIsTerm.exit.i
  %.val16 = phi i32 [ %.val16.pre, %.Mig_ObjIsCi.exit.thread_crit_edge ], [ %.val16.pre29, %Mig_ObjIsTerm.exit.i ]
  %30 = lshr i32 %.val16, 1
  %31 = tail call i32 @Mig_ManSuppSize2_rec(ptr noundef nonnull %0, i32 noundef %30)
  %.val17 = load i32, ptr %23, align 4
  %32 = lshr i32 %.val17, 1
  %33 = tail call i32 @Mig_ManSuppSize2_rec(ptr noundef nonnull %0, i32 noundef %32)
  %34 = getelementptr i8, ptr %22, i64 8
  %.val18 = load i32, ptr %34, align 4
  %35 = lshr i32 %.val18, 1
  %36 = add i32 %31, %accumulator.tr22
  %37 = add i32 %36, %33
  %38 = icmp eq i32 %35, 2147483647
  br i1 %38, label %Mig_ObjIsCi.exit._crit_edge.loopexit, label %8

Mig_ObjIsCi.exit._crit_edge.loopexit:             ; preds = %Mig_ObjIsTerm.exit.i, %8, %Mig_ObjIsCi.exit.thread
  %accumulator.tr.lcssa.ph = phi i32 [ %37, %Mig_ObjIsCi.exit.thread ], [ %accumulator.tr22, %8 ], [ %accumulator.tr22, %Mig_ObjIsTerm.exit.i ]
  %.0.ph = phi i32 [ 0, %Mig_ObjIsCi.exit.thread ], [ 0, %8 ], [ 1, %Mig_ObjIsTerm.exit.i ]
  %39 = add nsw i32 %.0.ph, %accumulator.tr.lcssa.ph
  br label %Mig_ObjIsCi.exit._crit_edge

Mig_ObjIsCi.exit._crit_edge:                      ; preds = %Mig_ObjIsCi.exit._crit_edge.loopexit, %2
  %accumulator.ret.tr = phi i32 [ 0, %2 ], [ %39, %Mig_ObjIsCi.exit._crit_edge.loopexit ]
  ret i32 %accumulator.ret.tr
}